; ModuleID = '54/1377.cpp'
source_filename = "54/1377.cpp"
target datalayout = "e-m:e-p270:32:32-p271:32:32-p272:64:64-i64:64-f80:128-n8:16:32:64-S128"
target triple = "x86_64-pc-linux-gnu"

%"class.std::ios_base::Init" = type { i8 }
%"class.std::basic_istream" = type { i32 (...)**, i64, %"class.std::basic_ios" }
%"class.std::basic_ios" = type { %"class.std::ios_base", %"class.std::basic_ostream"*, i8, i8, %"class.std::basic_streambuf"*, %"class.std::ctype"*, %"class.std::num_put"*, %"class.std::num_get"* }
%"class.std::ios_base" = type { i32 (...)**, i64, i64, i32, i32, i32, %"struct.std::ios_base::_Callback_list"*, %"struct.std::ios_base::_Words", [8 x %"struct.std::ios_base::_Words"], i32, %"struct.std::ios_base::_Words"*, %"class.std::locale" }
%"struct.std::ios_base::_Callback_list" = type { %"struct.std::ios_base::_Callback_list"*, void (i32, %"class.std::ios_base"*, i32)*, i32, i32 }
%"struct.std::ios_base::_Words" = type { i8*, i64 }
%"class.std::locale" = type { %"class.std::locale::_Impl"* }
%"class.std::locale::_Impl" = type { i32, %"class.std::locale::facet"**, i64, %"class.std::locale::facet"**, i8** }
%"class.std::locale::facet" = type <{ i32 (...)**, i32, [4 x i8] }>
%"class.std::basic_ostream" = type { i32 (...)**, %"class.std::basic_ios" }
%"class.std::basic_streambuf" = type { i32 (...)**, i8*, i8*, i8*, i8*, i8*, i8*, %"class.std::locale" }
%"class.std::ctype" = type <{ %"class.std::locale::facet.base", [4 x i8], %struct.__locale_struct*, i8, [7 x i8], i32*, i32*, i16*, i8, [256 x i8], [256 x i8], i8, [6 x i8] }>
%"class.std::locale::facet.base" = type <{ i32 (...)**, i32 }>
%struct.__locale_struct = type { [13 x %struct.__locale_data*], i16*, i32*, i32*, [13 x i8*] }
%struct.__locale_data = type opaque
%"class.std::num_put" = type { %"class.std::locale::facet.base", [4 x i8] }
%"class.std::num_get" = type { %"class.std::locale::facet.base", [4 x i8] }

@_ZStL8__ioinit = internal global %"class.std::ios_base::Init" zeroinitializer, align 1
@__dso_handle = external hidden global i8
@_ZSt3cin = external dso_local global %"class.std::basic_istream", align 8
@_ZSt4cout = external dso_local global %"class.std::basic_ostream", align 8
@llvm.global_ctors = appending global [1 x { i32, void ()*, i8* }] [{ i32, void ()*, i8* } { i32 65535, void ()* @_GLOBAL__sub_I_1377.cpp, i8* null }]

; Function Attrs: noinline uwtable
define internal void @__cxx_global_var_init() #0 section ".text.startup" {
  call void @_ZNSt8ios_base4InitC1Ev(%"class.std::ios_base::Init"* @_ZStL8__ioinit)
  %1 = call i32 @__cxa_atexit(void (i8*)* bitcast (void (%"class.std::ios_base::Init"*)* @_ZNSt8ios_base4InitD1Ev to void (i8*)*), i8* getelementptr inbounds (%"class.std::ios_base::Init", %"class.std::ios_base::Init"* @_ZStL8__ioinit, i32 0, i32 0), i8* @__dso_handle) #3
  ret void
}

declare dso_local void @_ZNSt8ios_base4InitC1Ev(%"class.std::ios_base::Init"*) unnamed_addr #1

; Function Attrs: nounwind
declare dso_local void @_ZNSt8ios_base4InitD1Ev(%"class.std::ios_base::Init"*) unnamed_addr #2

; Function Attrs: nounwind
declare dso_local i32 @__cxa_atexit(void (i8*)*, i8*, i8*) #3

; Function Attrs: noinline norecurse uwtable
define dso_local i32 @main() #4 {
  %1 = alloca i32, align 4
  %2 = alloca i32, align 4
  %3 = alloca i32, align 4
  %4 = alloca i32, align 4
  %5 = alloca i32, align 4
  %6 = alloca i32, align 4
  store i32 0, i32* %1, align 4
  %7 = call dereferenceable(280) %"class.std::basic_istream"* @_ZNSirsERi(%"class.std::basic_istream"* @_ZSt3cin, i32* dereferenceable(4) %5)
  %8 = call dereferenceable(280) %"class.std::basic_istream"* @_ZNSirsERi(%"class.std::basic_istream"* %7, i32* dereferenceable(4) %6)
  store i32 1, i32* %2, align 4
  br label %9

9:                                                ; preds = %20, %0
  %10 = load i32, i32* %2, align 4
  %11 = icmp slt i32 %10, 1373741824
  br i1 %11, label %12, label %23

12:                                               ; preds = %9
  %13 = load i32, i32* %2, align 4
  %14 = load i32, i32* %5, align 4
  %15 = load i32, i32* %6, align 4
  %16 = call i32 @_Z2goiiii(i32 %13, i32 %14, i32 %15, i32 0)
  %17 = icmp eq i32 %16, 1
  br i1 %17, label %18, label %19

18:                                               ; preds = %12
  br label %23

19:                                               ; preds = %12
  br label %20

20:                                               ; preds = %19
  %21 = load i32, i32* %2, align 4
  %22 = add nsw i32 %21, 1
  store i32 %22, i32* %2, align 4
  br label %9

23:                                               ; preds = %18, %9
  %24 = load i32, i32* %2, align 4
  store i32 %24, i32* %4, align 4
  store i32 0, i32* %2, align 4
  br label %25

25:                                               ; preds = %38, %23
  %26 = load i32, i32* %2, align 4
  %27 = load i32, i32* %5, align 4
  %28 = icmp slt i32 %26, %27
  br i1 %28, label %29, label %41

29:                                               ; preds = %25
  %30 = load i32, i32* %4, align 4
  %31 = load i32, i32* %5, align 4
  %32 = sub nsw i32 %31, 1
  %33 = sdiv i32 %30, %32
  %34 = load i32, i32* %5, align 4
  %35 = mul nsw i32 %33, %34
  %36 = load i32, i32* %6, align 4
  %37 = add nsw i32 %35, %36
  store i32 %37, i32* %4, align 4
  br label %38

38:                                               ; preds = %29
  %39 = load i32, i32* %2, align 4
  %40 = add nsw i32 %39, 1
  store i32 %40, i32* %2, align 4
  br label %25

41:                                               ; preds = %25
  %42 = load i32, i32* %4, align 4
  %43 = call dereferenceable(272) %"class.std::basic_ostream"* @_ZNSolsEi(%"class.std::basic_ostream"* @_ZSt4cout, i32 %42)
  %44 = call dereferenceable(272) %"class.std::basic_ostream"* @_ZNSolsEPFRSoS_E(%"class.std::basic_ostream"* %43, %"class.std::basic_ostream"* (%"class.std::basic_ostream"*)* @_ZSt4endlIcSt11char_traitsIcEERSt13basic_ostreamIT_T0_ES6_)
  ret i32 0
}

declare dso_local dereferenceable(280) %"class.std::basic_istream"* @_ZNSirsERi(%"class.std::basic_istream"*, i32* dereferenceable(4)) #1

; Function Attrs: noinline uwtable
define dso_local i32 @_Z2goiiii(i32 %0, i32 %1, i32 %2, i32 %3) #0 {
  %5 = alloca i32, align 4
  %6 = alloca i32, align 4
  %7 = alloca i32, align 4
  %8 = alloca i32, align 4
  %9 = alloca i32, align 4
  store i32 %0, i32* %6, align 4
  store i32 %1, i32* %7, align 4
  store i32 %2, i32* %8, align 4
  store i32 %3, i32* %9, align 4
  %10 = load i32, i32* %9, align 4
  %11 = load i32, i32* %7, align 4
  %12 = icmp eq i32 %10, %11
  br i1 %12, label %13, label %14

13:                                               ; preds = %4
  store i32 1, i32* %5, align 4
  br label %36

14:                                               ; preds = %4
  %15 = load i32, i32* %6, align 4
  %16 = load i32, i32* %7, align 4
  %17 = sub nsw i32 %16, 1
  %18 = srem i32 %15, %17
  %19 = icmp ne i32 %18, 0
  br i1 %19, label %20, label %21

20:                                               ; preds = %14
  store i32 0, i32* %5, align 4
  br label %36

21:                                               ; preds = %14
  %22 = load i32, i32* %9, align 4
  %23 = add nsw i32 %22, 1
  store i32 %23, i32* %9, align 4
  %24 = load i32, i32* %6, align 4
  %25 = load i32, i32* %7, align 4
  %26 = sub nsw i32 %25, 1
  %27 = sdiv i32 %24, %26
  %28 = load i32, i32* %7, align 4
  %29 = mul nsw i32 %27, %28
  %30 = load i32, i32* %8, align 4
  %31 = add nsw i32 %29, %30
  %32 = load i32, i32* %7, align 4
  %33 = load i32, i32* %8, align 4
  %34 = load i32, i32* %9, align 4
  %35 = call i32 @_Z2goiiii(i32 %31, i32 %32, i32 %33, i32 %34)
  store i32 %35, i32* %5, align 4
  br label %36

36:                                               ; preds = %21, %20, %13
  %37 = load i32, i32* %5, align 4
  ret i32 %37
}

declare dso_local dereferenceable(272) %"class.std::basic_ostream"* @_ZNSolsEi(%"class.std::basic_ostream"*, i32) #1

declare dso_local dereferenceable(272) %"class.std::basic_ostream"* @_ZNSolsEPFRSoS_E(%"class.std::basic_ostream"*, %"class.std::basic_ostream"* (%"class.std::basic_ostream"*)*) #1

declare dso_local dereferenceable(272) %"class.std::basic_ostream"* @_ZSt4endlIcSt11char_traitsIcEERSt13basic_ostreamIT_T0_ES6_(%"class.std::basic_ostream"* dereferenceable(272)) #1

; Function Attrs: noinline uwtable
define internal void @_GLOBAL__sub_I_1377.cpp() #0 section ".text.startup" {
  call void @__cxx_global_var_init()
  ret void
}


!llvm.module.flags = !{!0}
!llvm.ident = !{!1}

!0 = !{i32 1, !"wchar_size", i32 4}
!1 = !{!"clang version 10.0.0-4ubuntu1 "}
